target datalayout = "e-m:e-p270:32:32-p271:32:32-p272:64:64-i64:64-i128:128-f80:128-n8:16:32:64-S128"
target triple = "x86_64-unknown-linux-gnu"

%struct.BlockLimits = type { i32, i64, i32, i64, i32, i32, i32, i64, i32, i64, i64, i32, i8, i32, i32, i32, i32, i32, i32, i32 }
%struct.BlockDriverState = type { i32, i8, i8, i8, i8, i8, ptr, ptr, ptr, %struct.anon.1, i8, [4096 x i8], [4096 x i8], [4096 x i8], [16 x i8], ptr, [4096 x i8], %struct.BlockLimits, i32, i32, i32, i32, [32 x i8], %union.anon, %union.anon.2, %union.anon.3, i32, [16 x %struct.anon.4], ptr, %struct.anon.5, ptr, ptr, %struct.anon.6, ptr, ptr, i32, ptr, i64, i64, %struct.QemuMutex, %struct.anon.7, %struct.Stat64, i32, i32, i32, i32, i32, i32, %struct.QemuMutex, %struct.anon.8, %struct.CoQueue, i8, i32, i8, %struct.CoMutex, ptr, ptr }
%struct.anon.1 = type { ptr }
%union.anon = type { %struct.QTailQLink }
%struct.QTailQLink = type { ptr, ptr }
%union.anon.2 = type { %struct.QTailQLink }
%union.anon.3 = type { %struct.QTailQLink }
%struct.anon.4 = type { ptr }
%struct.anon.5 = type { ptr }
%struct.anon.6 = type { ptr }
%struct.anon.7 = type { ptr }
%struct.Stat64 = type { i64 }
%struct.QemuMutex = type { %union.pthread_mutex_t, i8 }
%union.pthread_mutex_t = type { %struct.__pthread_mutex_s }
%struct.__pthread_mutex_s = type { i32, i32, i32, i32, i32, i16, i16, %struct.__pthread_internal_list }
%struct.__pthread_internal_list = type { ptr, ptr }
%struct.anon.8 = type { ptr }
%struct.CoQueue = type { %struct.anon.9 }
%struct.anon.9 = type { ptr, ptr }
%struct.CoMutex = type { i32, ptr, %struct.anon.10, %struct.anon.10, i32, i32, ptr }
%struct.anon.10 = type { ptr }
%struct.BlockDriver = type { ptr, i32, i8, i8, i8, i8, i8, i8, ptr, ptr, ptr, ptr, ptr, ptr, ptr, ptr, ptr, ptr, ptr, ptr, ptr, ptr, ptr, ptr, ptr, ptr, ptr, ptr, ptr, ptr, ptr, ptr, ptr, ptr, ptr, ptr, ptr, ptr, ptr, ptr, ptr, ptr, ptr, ptr, ptr, ptr, ptr, ptr, ptr, ptr, ptr, ptr, ptr, ptr, ptr, ptr, ptr, ptr, ptr, ptr, ptr, %struct.anon.11, ptr, ptr, ptr, ptr, ptr, ptr, ptr, ptr, ptr, ptr, ptr, ptr, ptr, ptr, ptr, ptr, ptr, ptr, ptr, ptr, ptr, ptr, ptr, ptr, ptr, ptr, ptr, ptr, ptr, ptr, ptr, ptr, ptr, ptr, ptr, ptr, ptr, ptr, ptr, ptr, ptr, ptr, ptr, ptr, ptr, ptr, ptr, ptr, ptr }
%struct.anon.11 = type { ptr, ptr }
%struct.CoroutineIOCompletion = type { ptr, i32 }

@.str.4 = private unnamed_addr constant [13 x i8] c"coroutine_fn\00", section "llvm.metadata"
@.str.5 = private unnamed_addr constant [111 x i8] c"/home/dtcxzyw/WorkSpace/Projects/compilers/llvm-opt-benchmark/bench/qemu/qemu/include/block/block_int-common.h\00", section "llvm.metadata"

; Function Attrs: nounwind sspstrong uwtable
define dso_local void @bdrv_wakeup(ptr noundef %bs) #0 {
entry:
  %bs.addr = alloca ptr, align 8
  store ptr %bs, ptr %bs.addr, align 8
  br label %do.body

do.body:                                          ; preds = %entry
  br label %do.end

do.end:                                           ; preds = %do.body
  call void @aio_wait_kick()
  ret void
}

; Function Attrs: nounwind sspstrong uwtable
define dso_local void @bdrv_dec_in_flight(ptr noundef %bs) #0 {
entry:
  %bs.addr = alloca ptr, align 8
  %.atomictmp = alloca i32, align 4
  %atomic-temp = alloca i32, align 4
  store ptr %bs, ptr %bs.addr, align 8
  br label %do.body

do.body:                                          ; preds = %entry
  br label %do.end

do.end:                                           ; preds = %do.body
  %0 = load ptr, ptr %bs.addr, align 8
  %in_flight = getelementptr inbounds %struct.BlockDriverState, ptr %0, i32 0, i32 43
  store i32 1, ptr %.atomictmp, align 4
  %1 = load i32, ptr %.atomictmp, align 4
  %2 = atomicrmw sub ptr %in_flight, i32 %1 seq_cst, align 4
  store i32 %2, ptr %atomic-temp, align 4
  %3 = load ptr, ptr %bs.addr, align 8
  call void @bdrv_wakeup(ptr noundef %3)
  ret void
}

; Function Attrs: nounwind sspstrong uwtable
define dso_local void @bdrv_inc_in_flight(ptr noundef %bs) #0 {
entry:
  %bs.addr = alloca ptr, align 8
  %.atomictmp = alloca i32, align 4
  %atomic-temp = alloca i32, align 4
  store ptr %bs, ptr %bs.addr, align 8
  br label %do.body

do.body:                                          ; preds = %entry
  br label %do.end

do.end:                                           ; preds = %do.body
  %0 = load ptr, ptr %bs.addr, align 8
  %in_flight = getelementptr inbounds %struct.BlockDriverState, ptr %0, i32 0, i32 43
  store i32 1, ptr %.atomictmp, align 4
  %1 = load i32, ptr %.atomictmp, align 4
  %2 = atomicrmw add ptr %in_flight, i32 %1 seq_cst, align 4
  store i32 %2, ptr %atomic-temp, align 4
  ret void
}

; Function Attrs: nounwind sspstrong uwtable
define dso_local i32 @bdrv_co_ioctl(ptr noundef %bs, i32 noundef %req, ptr noundef %buf) #0 {
entry:
  %bs.addr = alloca ptr, align 8
  %req.addr = alloca i32, align 4
  %buf.addr = alloca ptr, align 8
  %drv = alloca ptr, align 8
  %co = alloca %struct.CoroutineIOCompletion, align 8
  %acb = alloca ptr, align 8
  store ptr %bs, ptr %bs.addr, align 8
  store i32 %req, ptr %req.addr, align 4
  store ptr %buf, ptr %buf.addr, align 8
  %0 = load ptr, ptr %bs.addr, align 8
  %drv1 = getelementptr inbounds %struct.BlockDriverState, ptr %0, i32 0, i32 6
  %1 = load ptr, ptr %drv1, align 8
  store ptr %1, ptr %drv, align 8
  %coroutine = getelementptr inbounds %struct.CoroutineIOCompletion, ptr %co, i32 0, i32 0
  %call = call ptr @qemu_coroutine_self()
  store ptr %call, ptr %coroutine, align 8
  %ret = getelementptr inbounds %struct.CoroutineIOCompletion, ptr %co, i32 0, i32 1
  store i32 0, ptr %ret, align 8
  br label %do.body

do.body:                                          ; preds = %entry
  br label %do.end

do.end:                                           ; preds = %do.body
  call void @assert_bdrv_graph_readable()
  %2 = load ptr, ptr %bs.addr, align 8
  call void @bdrv_inc_in_flight(ptr noundef %2)
  %3 = load ptr, ptr %drv, align 8
  %tobool = icmp ne ptr %3, null
  br i1 %tobool, label %lor.lhs.false, label %if.then

lor.lhs.false:                                    ; preds = %do.end
  %4 = load ptr, ptr %drv, align 8
  %bdrv_aio_ioctl = getelementptr inbounds %struct.BlockDriver, ptr %4, i32 0, i32 104
  %5 = call ptr @llvm.ptr.annotation.p0.p0(ptr %bdrv_aio_ioctl, ptr @.str.4, ptr @.str.5, i32 762, ptr null)
  %6 = load ptr, ptr %5, align 8
  %tobool2 = icmp ne ptr %6, null
  br i1 %tobool2, label %if.end, label %land.lhs.true

land.lhs.true:                                    ; preds = %lor.lhs.false
  %7 = load ptr, ptr %drv, align 8
  %bdrv_co_ioctl = getelementptr inbounds %struct.BlockDriver, ptr %7, i32 0, i32 105
  %8 = call ptr @llvm.ptr.annotation.p0.p0(ptr %bdrv_co_ioctl, ptr @.str.4, ptr @.str.5, i32 766, ptr null)
  %9 = load ptr, ptr %8, align 8
  %tobool3 = icmp ne ptr %9, null
  br i1 %tobool3, label %if.end, label %if.then

if.then:                                          ; preds = %land.lhs.true, %do.end
  %ret4 = getelementptr inbounds %struct.CoroutineIOCompletion, ptr %co, i32 0, i32 1
  store i32 -95, ptr %ret4, align 8
  br label %out

if.end:                                           ; preds = %land.lhs.true, %lor.lhs.false
  %10 = load ptr, ptr %drv, align 8
  %bdrv_co_ioctl5 = getelementptr inbounds %struct.BlockDriver, ptr %10, i32 0, i32 105
  %11 = call ptr @llvm.ptr.annotation.p0.p0(ptr %bdrv_co_ioctl5, ptr @.str.4, ptr @.str.5, i32 766, ptr null)
  %12 = load ptr, ptr %11, align 8
  %tobool6 = icmp ne ptr %12, null
  br i1 %tobool6, label %if.then7, label %if.else

if.then7:                                         ; preds = %if.end
  %13 = load ptr, ptr %drv, align 8
  %bdrv_co_ioctl8 = getelementptr inbounds %struct.BlockDriver, ptr %13, i32 0, i32 105
  %14 = call ptr @llvm.ptr.annotation.p0.p0(ptr %bdrv_co_ioctl8, ptr @.str.4, ptr @.str.5, i32 766, ptr null)
  %15 = load ptr, ptr %14, align 8
  %16 = load ptr, ptr %bs.addr, align 8
  %17 = load i32, ptr %req.addr, align 4
  %conv = sext i32 %17 to i64
  %18 = load ptr, ptr %buf.addr, align 8
  %call9 = call i32 %15(ptr noundef %16, i64 noundef %conv, ptr noundef %18)
  %ret10 = getelementptr inbounds %struct.CoroutineIOCompletion, ptr %co, i32 0, i32 1
  store i32 %call9, ptr %ret10, align 8
  br label %if.end18

if.else:                                          ; preds = %if.end
  %19 = load ptr, ptr %drv, align 8
  %bdrv_aio_ioctl11 = getelementptr inbounds %struct.BlockDriver, ptr %19, i32 0, i32 104
  %20 = call ptr @llvm.ptr.annotation.p0.p0(ptr %bdrv_aio_ioctl11, ptr @.str.4, ptr @.str.5, i32 762, ptr null)
  %21 = load ptr, ptr %20, align 8
  %22 = load ptr, ptr %bs.addr, align 8
  %23 = load i32, ptr %req.addr, align 4
  %conv12 = sext i32 %23 to i64
  %24 = load ptr, ptr %buf.addr, align 8
  %call13 = call ptr %21(ptr noundef %22, i64 noundef %conv12, ptr noundef %24, ptr noundef @bdrv_co_io_em_complete, ptr noundef %co)
  store ptr %call13, ptr %acb, align 8
  %25 = load ptr, ptr %acb, align 8
  %tobool14 = icmp ne ptr %25, null
  br i1 %tobool14, label %if.end17, label %if.then15

if.then15:                                        ; preds = %if.else
  %ret16 = getelementptr inbounds %struct.CoroutineIOCompletion, ptr %co, i32 0, i32 1
  store i32 -95, ptr %ret16, align 8
  br label %out

if.end17:                                         ; preds = %if.else
  call void @qemu_coroutine_yield()
  br label %if.end18

if.end18:                                         ; preds = %if.end17, %if.then7
  br label %out

out:                                              ; preds = %if.end18, %if.then15, %if.then
  %26 = load ptr, ptr %bs.addr, align 8
  call void @bdrv_dec_in_flight(ptr noundef %26)
  %ret19 = getelementptr inbounds %struct.CoroutineIOCompletion, ptr %co, i32 0, i32 1
  %27 = load i32, ptr %ret19, align 8
  ret i32 %27
}