; Function Attrs: nounwind sspstrong uwtable
define dso_local i32 @bdrv_co_ioctl(ptr noundef %bs, i32 noundef %req, ptr noundef %buf) #0 {
entry:
  %co = alloca %struct.CoroutineIOCompletion, align 8
  %drv1 = getelementptr inbounds nuw i8, ptr %bs, i64 16
  %0 = load ptr, ptr %drv1, align 8
  %call = tail call ptr @qemu_coroutine_self() #15
  store ptr %call, ptr %co, align 8
  %ret = getelementptr inbounds nuw i8, ptr %co, i64 8
  store i32 0, ptr %ret, align 8
  tail call void @assert_bdrv_graph_readable() #15
  %in_flight.i = getelementptr inbounds nuw i8, ptr %bs, i64 16972
  %1 = atomicrmw add ptr %in_flight.i, i32 1 seq_cst, align 4
  %tobool.not = icmp eq ptr %0, null
  br i1 %tobool.not, label %if.then, label %lor.lhs.false

lor.lhs.false:                                    ; preds = %entry
  %bdrv_aio_ioctl = getelementptr inbounds nuw i8, ptr %0, i64 800
  %2 = tail call ptr @llvm.ptr.annotation.p0.p0(ptr nonnull %bdrv_aio_ioctl, ptr nonnull @.str.4, ptr nonnull @.str.5, i32 762, ptr null)
  %3 = load ptr, ptr %2, align 8
  %tobool2.not = icmp eq ptr %3, null
  br i1 %tobool2.not, label %land.lhs.true, label %if.end

land.lhs.true:                                    ; preds = %lor.lhs.false
  %bdrv_co_ioctl = getelementptr inbounds nuw i8, ptr %0, i64 808
  %4 = tail call ptr @llvm.ptr.annotation.p0.p0(ptr nonnull %bdrv_co_ioctl, ptr nonnull @.str.4, ptr nonnull @.str.5, i32 766, ptr null)
  %5 = load ptr, ptr %4, align 8
  %tobool3.not = icmp eq ptr %5, null
  br i1 %tobool3.not, label %if.then, label %if.end

if.then:                                          ; preds = %land.lhs.true, %entry
  store i32 -95, ptr %ret, align 8
  br label %out

if.end:                                           ; preds = %land.lhs.true, %lor.lhs.false
  %bdrv_co_ioctl5 = getelementptr inbounds nuw i8, ptr %0, i64 808
  %6 = tail call ptr @llvm.ptr.annotation.p0.p0(ptr nonnull %bdrv_co_ioctl5, ptr nonnull @.str.4, ptr nonnull @.str.5, i32 766, ptr null)
  %7 = load ptr, ptr %6, align 8
  %tobool6.not = icmp eq ptr %7, null
  %conv12 = sext i32 %req to i64
  br i1 %tobool6.not, label %if.else, label %if.then7

if.then7:                                         ; preds = %if.end
  %8 = tail call ptr @llvm.ptr.annotation.p0.p0(ptr nonnull %bdrv_co_ioctl5, ptr nonnull @.str.4, ptr nonnull @.str.5, i32 766, ptr null)
  %9 = load ptr, ptr %8, align 8
  %call9 = tail call i32 %9(ptr noundef nonnull %bs, i64 noundef %conv12, ptr noundef %buf) #15
  store i32 %call9, ptr %ret, align 8
  br label %out

if.else:                                          ; preds = %if.end
  %10 = tail call ptr @llvm.ptr.annotation.p0.p0(ptr nonnull %bdrv_aio_ioctl, ptr nonnull @.str.4, ptr nonnull @.str.5, i32 762, ptr null)
  %11 = load ptr, ptr %10, align 8
  %call13 = call ptr %11(ptr noundef nonnull %bs, i64 noundef %conv12, ptr noundef %buf, ptr noundef nonnull @bdrv_co_io_em_complete, ptr noundef nonnull %co) #15
  %tobool14.not = icmp eq ptr %call13, null
  br i1 %tobool14.not, label %if.then15, label %if.end17

if.then15:                                        ; preds = %if.else
  store i32 -95, ptr %ret, align 8
  br label %out

if.end17:                                         ; preds = %if.else
  call void @qemu_coroutine_yield() #15
  br label %out

out:                                              ; preds = %if.then7, %if.end17, %if.then15, %if.then
  %12 = atomicrmw sub ptr %in_flight.i, i32 1 seq_cst, align 4
  call void @aio_wait_kick() #15
  %13 = load i32, ptr %ret, align 8
  ret i32 %13
}